; Function Attrs: mustprogress nofree norecurse nosync nounwind willreturn memory(readwrite, inaccessiblemem: none) uwtable
define dso_local void @_ZN4Luau7CodeGen19setUserdataRemapperEP9lua_StatePvPFhS3_PKcmE(ptr noundef readonly captures(none) %0, ptr noundef %1, ptr noundef %2) local_unnamed_addr #12 {
  %4 = getelementptr i8, ptr %0, i64 24
  %.val = load ptr, ptr %4, align 8, !tbaa !121
  %5 = getelementptr i8, ptr %.val, i64 3368
  %.val.val = load ptr, ptr %5, align 8, !tbaa !148
  %.not = icmp eq ptr %.val.val, null
  br i1 %.not, label %11, label %6

6:                                                ; preds = %3
  %7 = getelementptr inbounds nuw i8, ptr %.val.val, i64 152
  store ptr %1, ptr %7, align 8, !tbaa !317
  %8 = getelementptr inbounds nuw i8, ptr %.val.val, i64 160
  store ptr %2, ptr %8, align 8, !tbaa !318
  %.not8 = icmp eq ptr %2, null
  %9 = select i1 %.not8, ptr null, ptr @_ZN4Luau7CodeGenL20userdataRemapperWrapEP9lua_StatePKcm
  %10 = getelementptr inbounds nuw i8, ptr %.val, i64 3416
  store ptr %9, ptr %10, align 8, !tbaa !319
  br label %11

11:                                               ; preds = %6, %3
  ret void
}